ccopy_reg
_reconstructor
p0
(cmclass
OlfactoryGng
p1
c__builtin__
object
p2
Ntp3
Rp4
(dp5
S'grace_preiod'
p6
F0.2
sS'positive_valve'
p7
S'B'
p8
sS'name'
p9
S'asd'
p10
sS'active_period'
p11
F2.5
sS'idle_period'
p12
F3.0
sS'notes'
p13
S''
p14
sS'negative_valve'
p15
S'C'
p16
sS'action_count'
p17
I30
sS'reset_on_random'
p18
S'on'
p19
sS'video'
p20
S'off'
p21
sS'stim_length'
p22
F1.5
sS'positive_count'
p23
I15
sS'negative_count'
p24
I15
sS'extra_time'
p25
F2.0
sS'blank_valve'
p26
S'A'
p27
sb.